target datalayout = "e-m:e-p270:32:32-p271:32:32-p272:64:64-i64:64-i128:128-f80:128-n8:16:32:64-S128"
target triple = "x86_64-pc-linux-gnu"

%"class.nix::Config" = type { %"class.nix::AbstractConfig", %"class.std::map.0" }
%"class.nix::AbstractConfig" = type { ptr, %"class.std::map" }
%"class.std::map" = type { %"class.std::_Rb_tree" }
%"class.std::_Rb_tree" = type { %"struct.std::_Rb_tree<std::__cxx11::basic_string<char>, std::pair<const std::__cxx11::basic_string<char>, std::__cxx11::basic_string<char>>, std::_Select1st<std::pair<const std::__cxx11::basic_string<char>, std::__cxx11::basic_string<char>>>, std::less<std::__cxx11::basic_string<char>>>::_Rb_tree_impl" }
%"struct.std::_Rb_tree<std::__cxx11::basic_string<char>, std::pair<const std::__cxx11::basic_string<char>, std::__cxx11::basic_string<char>>, std::_Select1st<std::pair<const std::__cxx11::basic_string<char>, std::__cxx11::basic_string<char>>>, std::less<std::__cxx11::basic_string<char>>>::_Rb_tree_impl" = type { %"struct.std::_Rb_tree_key_compare", %"struct.std::_Rb_tree_header" }
%"struct.std::_Rb_tree_key_compare" = type { %"struct.std::less" }
%"struct.std::less" = type { i8 }
%"struct.std::_Rb_tree_header" = type { %"struct.std::_Rb_tree_node_base", i64 }
%"struct.std::_Rb_tree_node_base" = type { i32, ptr, ptr, ptr }
%"class.std::map.0" = type { %"class.std::_Rb_tree.1" }
%"class.std::_Rb_tree.1" = type { %"struct.std::_Rb_tree<std::__cxx11::basic_string<char>, std::pair<const std::__cxx11::basic_string<char>, nix::Config::SettingData>, std::_Select1st<std::pair<const std::__cxx11::basic_string<char>, nix::Config::SettingData>>, std::less<std::__cxx11::basic_string<char>>>::_Rb_tree_impl" }
%"struct.std::_Rb_tree<std::__cxx11::basic_string<char>, std::pair<const std::__cxx11::basic_string<char>, nix::Config::SettingData>, std::_Select1st<std::pair<const std::__cxx11::basic_string<char>, nix::Config::SettingData>>, std::less<std::__cxx11::basic_string<char>>>::_Rb_tree_impl" = type { %"struct.std::_Rb_tree_key_compare", %"struct.std::_Rb_tree_header" }
%"class.nix::Setting.19" = type { %"class.nix::BaseSetting.base.21", [7 x i8] }
%"class.nix::BaseSetting.base.21" = type <{ %"class.nix::AbstractSetting", %"class.std::__cxx11::basic_string", %"class.std::__cxx11::basic_string", i8 }>
%"class.nix::AbstractSetting" = type { ptr, %"class.std::__cxx11::basic_string", %"class.std::__cxx11::basic_string", %"class.std::set", i32, i8, [3 x i8], %"class.std::optional" }
%"class.std::set" = type { %"class.std::_Rb_tree.8" }
%"class.std::_Rb_tree.8" = type { %"struct.std::_Rb_tree<std::__cxx11::basic_string<char>, std::__cxx11::basic_string<char>, std::_Identity<std::__cxx11::basic_string<char>>, std::less<std::__cxx11::basic_string<char>>>::_Rb_tree_impl" }
%"struct.std::_Rb_tree<std::__cxx11::basic_string<char>, std::__cxx11::basic_string<char>, std::_Identity<std::__cxx11::basic_string<char>>, std::less<std::__cxx11::basic_string<char>>>::_Rb_tree_impl" = type { %"struct.std::_Rb_tree_key_compare", %"struct.std::_Rb_tree_header" }
%"class.std::optional" = type { %"struct.std::_Optional_base" }
%"struct.std::_Optional_base" = type { %"struct.std::_Optional_payload" }
%"struct.std::_Optional_payload" = type { %"struct.std::_Optional_payload_base.base", [3 x i8] }
%"struct.std::_Optional_payload_base.base" = type <{ %"union.std::_Optional_payload_base<nix::ExperimentalFeature>::_Storage", i8 }>
%"union.std::_Optional_payload_base<nix::ExperimentalFeature>::_Storage" = type { i32 }
%"class.std::__cxx11::basic_string" = type { %"struct.std::__cxx11::basic_string<char>::_Alloc_hider", i64, %union.anon }
%"struct.std::__cxx11::basic_string<char>::_Alloc_hider" = type { ptr }
%union.anon = type { i64, [8 x i8] }
%"class.nix::Setting.12" = type { %"class.nix::BaseSetting.base.17", [7 x i8] }
%"class.nix::BaseSetting.base.17" = type <{ %"class.nix::AbstractSetting", %"class.std::__cxx11::list", %"class.std::__cxx11::list", i8 }>
%"class.std::__cxx11::list" = type { %"class.std::__cxx11::_List_base" }
%"class.std::__cxx11::_List_base" = type { %"struct.std::__cxx11::_List_base<std::__cxx11::basic_string<char>, std::allocator<std::__cxx11::basic_string<char>>>::_List_impl" }
%"struct.std::__cxx11::_List_base<std::__cxx11::basic_string<char>, std::allocator<std::__cxx11::basic_string<char>>>::_List_impl" = type { %"struct.std::__detail::_List_node_header" }
%"struct.std::__detail::_List_node_header" = type { %"struct.std::__detail::_List_node_base", i64 }
%"struct.std::__detail::_List_node_base" = type { ptr, ptr }
%"class.nix::Setting.23" = type { %"class.nix::BaseSetting.base.25", [7 x i8] }
%"class.nix::BaseSetting.base.25" = type <{ %"class.nix::AbstractSetting", i32, i32, i8 }>
%"class.nix::Setting" = type { %"class.nix::BaseSetting.base", [5 x i8] }
%"class.nix::BaseSetting.base" = type <{ %"class.nix::AbstractSetting", i8, i8, i8 }>
%"class.nix::Settings" = type { %"class.nix::Config", %"class.std::__cxx11::basic_string", %"class.std::__cxx11::basic_string", %"class.std::__cxx11::basic_string", %"class.std::__cxx11::basic_string", %"class.std::__cxx11::basic_string", %"class.std::__cxx11::basic_string", %"class.std::vector", %"class.std::__cxx11::basic_string", %"class.std::__cxx11::basic_string", %"class.std::__cxx11::basic_string", %"class.nix::Setting.19", %"class.nix::Setting", %"class.nix::Setting", %"class.nix::Setting", i8, [7 x i8], %"class.nix::Setting.40", %"struct.nix::MaxBuildJobsSetting", %"class.nix::Setting.23", %"class.nix::Setting.23", i8, [7 x i8], %"class.nix::Setting.19", %"class.nix::Setting.44", %"class.nix::Setting.44", %"class.nix::Setting.12", %"class.nix::Setting.19", %"class.nix::Setting", %"class.nix::Setting", %"class.nix::Setting.44", %"class.nix::Setting", %"class.nix::Setting", %"class.nix::Setting", %"class.nix::Setting", %"class.nix::Setting.19", %"class.nix::Setting", %"class.nix::Setting.23", %"class.nix::Setting.23", %"class.nix::Setting", %"class.nix::Setting", %"class.nix::Setting", %"class.nix::Setting", %"class.nix::Setting.40", %"class.nix::Setting.23", %"class.nix::Setting", %"class.nix::Setting", %"class.nix::Setting", %"class.nix::Setting", %"class.nix::Setting.48", %"class.nix::Setting.52", %"class.nix::Setting", %"class.nix::Setting", %"class.nix::Setting.19", %"class.nix::Setting.19", %"class.nix::Setting.52", %"class.nix::Setting", %"class.nix::OptionalPathSetting", %"class.nix::Setting.12", %"class.nix::Setting.12", %"class.nix::Setting.23", %"class.nix::Setting", %"class.nix::Setting.52", %"class.nix::Setting.52", %"class.nix::Setting.12", %"class.nix::Setting.52", %"class.nix::Setting.23", %"class.nix::Setting.23", %"class.nix::Setting", %"class.nix::Setting.19", %"class.nix::Setting.19", %"class.nix::Setting.23", %"class.nix::Setting.19", %"class.nix::Setting.19", %"class.nix::Setting", %"class.nix::Setting", %"class.nix::Setting.52", %"class.nix::Setting.12", %"class.nix::Setting.40", %"class.nix::Setting.40", %"class.nix::Setting.40", %"struct.nix::PluginFilesSetting", %"class.nix::Setting.40", %"class.nix::Setting", %"class.nix::Setting", %"class.nix::Setting.58", %"class.nix::Setting.19" }
%"class.std::vector" = type { %"struct.std::_Vector_base" }
%"struct.std::_Vector_base" = type { %"struct.std::_Vector_base<std::__cxx11::basic_string<char>, std::allocator<std::__cxx11::basic_string<char>>>::_Vector_impl" }
%"struct.std::_Vector_base<std::__cxx11::basic_string<char>, std::allocator<std::__cxx11::basic_string<char>>>::_Vector_impl" = type { %"struct.std::_Vector_base<std::__cxx11::basic_string<char>, std::allocator<std::__cxx11::basic_string<char>>>::_Vector_impl_data" }
%"struct.std::_Vector_base<std::__cxx11::basic_string<char>, std::allocator<std::__cxx11::basic_string<char>>>::_Vector_impl_data" = type { ptr, ptr, ptr }
%"struct.nix::MaxBuildJobsSetting" = type { %"class.nix::BaseSetting.base.25", [7 x i8] }
%"class.nix::Setting.44" = type { %"class.nix::BaseSetting.base.46", [7 x i8] }
%"class.nix::BaseSetting.base.46" = type <{ %"class.nix::AbstractSetting", i64, i64, i8 }>
%"class.nix::Setting.48" = type { %"class.nix::BaseSetting.base.50", [7 x i8] }
%"class.nix::BaseSetting.base.50" = type <{ %"class.nix::AbstractSetting", i32, i32, i8 }>
%"class.nix::OptionalPathSetting" = type { %"class.nix::BaseSetting.base.57", [7 x i8] }
%"class.nix::BaseSetting.base.57" = type <{ %"class.nix::AbstractSetting", %"class.std::optional.27", %"class.std::optional.27", i8 }>
%"class.std::optional.27" = type { %"struct.std::_Optional_base.28" }
%"struct.std::_Optional_base.28" = type { %"struct.std::_Optional_payload.30" }
%"struct.std::_Optional_payload.30" = type { %"struct.std::_Optional_payload.base.34", [7 x i8] }
%"struct.std::_Optional_payload.base.34" = type { %"struct.std::_Optional_payload_base.base.33" }
%"struct.std::_Optional_payload_base.base.33" = type <{ %"union.std::_Optional_payload_base<std::__cxx11::basic_string<char>>::_Storage", i8 }>
%"union.std::_Optional_payload_base<std::__cxx11::basic_string<char>>::_Storage" = type { %"class.std::__cxx11::basic_string" }
%"class.nix::Setting.52" = type { %"class.nix::BaseSetting.base.54", [7 x i8] }
%"class.nix::BaseSetting.base.54" = type <{ %"class.nix::AbstractSetting", %"class.std::set", %"class.std::set", i8 }>
%"struct.nix::PluginFilesSetting" = type { %"class.nix::BaseSetting.base.17", i8, [6 x i8] }
%"class.nix::Setting.40" = type { %"class.nix::BaseSetting.base.42", [7 x i8] }
%"class.nix::BaseSetting.base.42" = type <{ %"class.nix::AbstractSetting", i64, i64, i8 }>
%"class.nix::Setting.58" = type { %"class.nix::BaseSetting.base.60", [7 x i8] }
%"class.nix::BaseSetting.base.60" = type <{ %"class.nix::AbstractSetting", %"class.std::map", %"class.std::map", i8 }>
%"class.nix::BaseSetting" = type <{ %"class.nix::AbstractSetting", i8, i8, i8, [5 x i8] }>

@_ZN3nix8settingsE = external global %"class.nix::Settings", align 8
@.str.48 = private unnamed_addr constant [13 x i8] c"/nix/defexpr\00", align 1
@.str.49 = private unnamed_addr constant [14 x i8] c"/.nix-defexpr\00", align 1

; Function Attrs: mustprogress nounwind uwtable
define linkonce_odr noundef nonnull align 1 dereferenceable(1) ptr @_ZN3nix11BaseSettingIbEcvRbEv(ptr noundef nonnull align 8 dereferenceable(139) %0) #2 comdat align 2 {
  %2 = alloca ptr, align 8
  store ptr %0, ptr %2, align 8
  %3 = load ptr, ptr %2, align 8
  %4 = getelementptr inbounds %"class.nix::BaseSetting", ptr %3, i32 0, i32 1
  ret ptr %4
}

; Function Attrs: mustprogress uwtable
define void @_ZN3nix13getNixDefExprB5cxx11Ev(ptr dead_on_unwind noalias writable sret(%"class.std::__cxx11::basic_string") align 8 %0) #5 personality ptr @__gxx_personality_v0 {
  %2 = alloca ptr, align 8
  %3 = alloca %"class.std::__cxx11::basic_string", align 8
  %4 = alloca i1, align 1
  %5 = alloca ptr, align 8
  %6 = alloca i32, align 4
  %7 = alloca %"class.std::__cxx11::basic_string", align 8
  %8 = alloca i1, align 1
  store ptr %0, ptr %2, align 8
  %9 = call noundef nonnull align 1 dereferenceable(1) ptr @_ZN3nix11BaseSettingIbEcvRbEv(ptr noundef nonnull align 8 dereferenceable(139) getelementptr inbounds (%"class.nix::Settings", ptr @_ZN3nix8settingsE, i32 0, i32 84))
  %10 = load i8, ptr %9, align 1
  %11 = trunc i8 %10 to i1
  store i1 false, ptr %4, align 1
  store i1 false, ptr %8, align 1
  br i1 %11, label %12, label %14

12:                                               ; preds = %1
  call void @_ZN3nix11getStateDirB5cxx11Ev(ptr dead_on_unwind writable sret(%"class.std::__cxx11::basic_string") align 8 %3)
  store i1 true, ptr %4, align 1
  invoke void @_ZStplIcSt11char_traitsIcESaIcEENSt7__cxx1112basic_stringIT_T0_T1_EEOS8_PKS5_(ptr dead_on_unwind writable sret(%"class.std::__cxx11::basic_string") align 8 %0, ptr noundef nonnull align 8 dereferenceable(32) %3, ptr noundef @.str.48)
          to label %13 unwind label %24

13:                                               ; preds = %12
  br label %17

14:                                               ; preds = %1
  invoke void @_ZN3nix7getHomeB5cxx11Ev(ptr dead_on_unwind writable sret(%"class.std::__cxx11::basic_string") align 8 %7)
          to label %15 unwind label %24

15:                                               ; preds = %14
  store i1 true, ptr %8, align 1
  invoke void @_ZStplIcSt11char_traitsIcESaIcEENSt7__cxx1112basic_stringIT_T0_T1_EEOS8_PKS5_(ptr dead_on_unwind writable sret(%"class.std::__cxx11::basic_string") align 8 %0, ptr noundef nonnull align 8 dereferenceable(32) %7, ptr noundef @.str.49)
          to label %16 unwind label %28

16:                                               ; preds = %15
  br label %17

17:                                               ; preds = %16, %13
  %18 = load i1, ptr %8, align 1
  br i1 %18, label %19, label %20

19:                                               ; preds = %17
  call void @_ZNSt7__cxx1112basic_stringIcSt11char_traitsIcESaIcEED2Ev(ptr noundef nonnull align 8 dereferenceable(32) %7) #1
  br label %20

20:                                               ; preds = %19, %17
  %21 = load i1, ptr %4, align 1
  br i1 %21, label %22, label %23

22:                                               ; preds = %20
  call void @_ZNSt7__cxx1112basic_stringIcSt11char_traitsIcESaIcEED2Ev(ptr noundef nonnull align 8 dereferenceable(32) %3) #1
  br label %23

23:                                               ; preds = %22, %20
  ret void

24:                                               ; preds = %14, %12
  %25 = landingpad { ptr, i32 }
          cleanup
  %26 = extractvalue { ptr, i32 } %25, 0
  store ptr %26, ptr %5, align 8
  %27 = extractvalue { ptr, i32 } %25, 1
  store i32 %27, ptr %6, align 4
  br label %35

28:                                               ; preds = %15
  %29 = landingpad { ptr, i32 }
          cleanup
  %30 = extractvalue { ptr, i32 } %29, 0
  store ptr %30, ptr %5, align 8
  %31 = extractvalue { ptr, i32 } %29, 1
  store i32 %31, ptr %6, align 4
  %32 = load i1, ptr %8, align 1
  br i1 %32, label %33, label %34

33:                                               ; preds = %28
  call void @_ZNSt7__cxx1112basic_stringIcSt11char_traitsIcESaIcEED2Ev(ptr noundef nonnull align 8 dereferenceable(32) %7) #1
  br label %34

34:                                               ; preds = %33, %28
  br label %35

35:                                               ; preds = %34, %24
  %36 = load i1, ptr %4, align 1
  br i1 %36, label %37, label %38

37:                                               ; preds = %35
  call void @_ZNSt7__cxx1112basic_stringIcSt11char_traitsIcESaIcEED2Ev(ptr noundef nonnull align 8 dereferenceable(32) %3) #1
  br label %38

38:                                               ; preds = %37, %35
  br label %39

39:                                               ; preds = %38
  %40 = load ptr, ptr %5, align 8
  %41 = load i32, ptr %6, align 4
  %42 = insertvalue { ptr, i32 } poison, ptr %40, 0
  %43 = insertvalue { ptr, i32 } %42, i32 %41, 1
  resume { ptr, i32 } %43
}